; ModuleID = '27/1887.c'
source_filename = "27/1887.c"
target datalayout = "e-m:e-p270:32:32-p271:32:32-p272:64:64-i64:64-f80:128-n8:16:32:64-S128"
target triple = "x86_64-pc-linux-gnu"

@.str = private unnamed_addr constant [3 x i8] c"%d\00", align 1
@.str.1 = private unnamed_addr constant [12 x i8] c"%lf %lf %lf\00", align 1
@.str.2 = private unnamed_addr constant [11 x i8] c"x1=x2=%.5f\00", align 1
@.str.3 = private unnamed_addr constant [18 x i8] c"x1=%.5lf;x2=%.5lf\00", align 1
@.str.4 = private unnamed_addr constant [30 x i8] c"x1=%.5lf+%.5lfi;x2=%.5f-%.5fi\00", align 1
@.str.5 = private unnamed_addr constant [2 x i8] c"\0A\00", align 1

; Function Attrs: noinline nounwind uwtable
define dso_local i32 @main() #0 {
  %1 = alloca i32, align 4
  %2 = alloca i32, align 4
  %3 = alloca i32, align 4
  %4 = alloca double, align 8
  %5 = alloca double, align 8
  %6 = alloca double, align 8
  %7 = alloca double, align 8
  store i32 0, i32* %1, align 4
  %8 = call i32 (i8*, ...) @__isoc99_scanf(i8* getelementptr inbounds ([3 x i8], [3 x i8]* @.str, i64 0, i64 0), i32* %2)
  store i32 0, i32* %3, align 4
  br label %9

9:                                                ; preds = %119, %0
  %10 = load i32, i32* %3, align 4
  %11 = load i32, i32* %2, align 4
  %12 = icmp slt i32 %10, %11
  br i1 %12, label %13, label %122

13:                                               ; preds = %9
  %14 = call i32 (i8*, ...) @__isoc99_scanf(i8* getelementptr inbounds ([12 x i8], [12 x i8]* @.str.1, i64 0, i64 0), double* %4, double* %5, double* %6)
  %15 = load double, double* %5, align 8
  %16 = load double, double* %5, align 8
  %17 = fmul double %15, %16
  %18 = load double, double* %4, align 8
  %19 = fmul double 4.000000e+00, %18
  %20 = load double, double* %6, align 8
  %21 = fmul double %19, %20
  %22 = fsub double %17, %21
  store double %22, double* %7, align 8
  %23 = load double, double* %7, align 8
  %24 = call double @llvm.fabs.f64(double %23)
  %25 = fcmp ole double %24, 0x3EB0C6F7A0B5ED8D
  br i1 %25, label %26, label %44

26:                                               ; preds = %13
  %27 = load double, double* %5, align 8
  %28 = call double @llvm.fabs.f64(double %27)
  %29 = fcmp ole double %28, 0x3EB0C6F7A0B5ED8D
  br i1 %29, label %30, label %36

30:                                               ; preds = %26
  %31 = load double, double* %5, align 8
  %32 = load double, double* %4, align 8
  %33 = fmul double 2.000000e+00, %32
  %34 = fdiv double %31, %33
  %35 = call i32 (i8*, ...) @printf(i8* getelementptr inbounds ([11 x i8], [11 x i8]* @.str.2, i64 0, i64 0), double %34)
  br label %43

36:                                               ; preds = %26
  %37 = load double, double* %5, align 8
  %38 = fneg double %37
  %39 = load double, double* %4, align 8
  %40 = fmul double 2.000000e+00, %39
  %41 = fdiv double %38, %40
  %42 = call i32 (i8*, ...) @printf(i8* getelementptr inbounds ([11 x i8], [11 x i8]* @.str.2, i64 0, i64 0), double %41)
  br label %43

43:                                               ; preds = %36, %30
  br label %117

44:                                               ; preds = %13
  %45 = load double, double* %7, align 8
  %46 = fcmp ogt double %45, 0x3EB0C6F7A0B5ED8D
  br i1 %46, label %47, label %65

47:                                               ; preds = %44
  %48 = load double, double* %5, align 8
  %49 = fneg double %48
  %50 = load double, double* %7, align 8
  %51 = call double @sqrt(double %50) #4
  %52 = fadd double %49, %51
  %53 = load double, double* %4, align 8
  %54 = fmul double 2.000000e+00, %53
  %55 = fdiv double %52, %54
  %56 = load double, double* %5, align 8
  %57 = fneg double %56
  %58 = load double, double* %7, align 8
  %59 = call double @sqrt(double %58) #4
  %60 = fsub double %57, %59
  %61 = load double, double* %4, align 8
  %62 = fmul double 2.000000e+00, %61
  %63 = fdiv double %60, %62
  %64 = call i32 (i8*, ...) @printf(i8* getelementptr inbounds ([18 x i8], [18 x i8]* @.str.3, i64 0, i64 0), double %55, double %63)
  br label %116

65:                                               ; preds = %44
  %66 = load double, double* %5, align 8
  %67 = call double @llvm.fabs.f64(double %66)
  %68 = fcmp ole double %67, 0x3EB0C6F7A0B5ED8D
  br i1 %68, label %69, label %91

69:                                               ; preds = %65
  %70 = load double, double* %5, align 8
  %71 = load double, double* %4, align 8
  %72 = fmul double 2.000000e+00, %71
  %73 = fdiv double %70, %72
  %74 = load double, double* %7, align 8
  %75 = fneg double %74
  %76 = call double @sqrt(double %75) #4
  %77 = load double, double* %4, align 8
  %78 = fmul double 2.000000e+00, %77
  %79 = fdiv double %76, %78
  %80 = load double, double* %5, align 8
  %81 = load double, double* %4, align 8
  %82 = fmul double 2.000000e+00, %81
  %83 = fdiv double %80, %82
  %84 = load double, double* %7, align 8
  %85 = fneg double %84
  %86 = call double @sqrt(double %85) #4
  %87 = load double, double* %4, align 8
  %88 = fmul double 2.000000e+00, %87
  %89 = fdiv double %86, %88
  %90 = call i32 (i8*, ...) @printf(i8* getelementptr inbounds ([30 x i8], [30 x i8]* @.str.4, i64 0, i64 0), double %73, double %79, double %83, double %89)
  br label %115

91:                                               ; preds = %65
  %92 = load double, double* %5, align 8
  %93 = fneg double %92
  %94 = load double, double* %4, align 8
  %95 = fmul double 2.000000e+00, %94
  %96 = fdiv double %93, %95
  %97 = load double, double* %7, align 8
  %98 = fneg double %97
  %99 = call double @sqrt(double %98) #4
  %100 = load double, double* %4, align 8
  %101 = fmul double 2.000000e+00, %100
  %102 = fdiv double %99, %101
  %103 = load double, double* %5, align 8
  %104 = fneg double %103
  %105 = load double, double* %4, align 8
  %106 = fmul double 2.000000e+00, %105
  %107 = fdiv double %104, %106
  %108 = load double, double* %7, align 8
  %109 = fneg double %108
  %110 = call double @sqrt(double %109) #4
  %111 = load double, double* %4, align 8
  %112 = fmul double 2.000000e+00, %111
  %113 = fdiv double %110, %112
  %114 = call i32 (i8*, ...) @printf(i8* getelementptr inbounds ([30 x i8], [30 x i8]* @.str.4, i64 0, i64 0), double %96, double %102, double %107, double %113)
  br label %115

115:                                              ; preds = %91, %69
  br label %116

116:                                              ; preds = %115, %47
  br label %117

117:                                              ; preds = %116, %43
  %118 = call i32 (i8*, ...) @printf(i8* getelementptr inbounds ([2 x i8], [2 x i8]* @.str.5, i64 0, i64 0))
  br label %119

119:                                              ; preds = %117
  %120 = load i32, i32* %3, align 4
  %121 = add nsw i32 %120, 1
  store i32 %121, i32* %3, align 4
  br label %9

122:                                              ; preds = %9
  %123 = load i32, i32* %1, align 4
  ret i32 %123
}

declare dso_local i32 @__isoc99_scanf(i8*, ...) #1

; Function Attrs: nounwind readnone speculatable willreturn
declare double @llvm.fabs.f64(double) #2

declare dso_local i32 @printf(i8*, ...) #1

; Function Attrs: nounwind
declare dso_local double @sqrt(double) #3


!llvm.module.flags = !{!0}
!llvm.ident = !{!1}

!0 = !{i32 1, !"wchar_size", i32 4}
!1 = !{!"clang version 10.0.0-4ubuntu1 "}
