; ModuleID = 'source-C-CXX/26/1887.c'
source_filename = "source-C-CXX/26/1887.c"
target datalayout = "e-m:e-p270:32:32-p271:32:32-p272:64:64-i64:64-f80:128-n8:16:32:64-S128"
target triple = "x86_64-pc-linux-gnu"

@.str = private unnamed_addr constant [3 x i8] c"%d\00", align 1
@.str.1 = private unnamed_addr constant [12 x i8] c"%lf %lf %lf\00", align 1
@.str.2 = private unnamed_addr constant [11 x i8] c"x1=x2=%.5f\00", align 1
@.str.3 = private unnamed_addr constant [18 x i8] c"x1=%.5lf;x2=%.5lf\00", align 1
@.str.4 = private unnamed_addr constant [30 x i8] c"x1=%.5lf+%.5lfi;x2=%.5f-%.5fi\00", align 1

; Function Attrs: nofree nounwind sspstrong uwtable
define dso_local i32 @main() local_unnamed_addr #0 {
  %1 = alloca i32, align 4
  %2 = alloca double, align 8
  %3 = alloca double, align 8
  %4 = alloca double, align 8
  %5 = bitcast i32* %1 to i8*
  call void @llvm.lifetime.start.p0i8(i64 4, i8* nonnull %5) #6
  %6 = call i32 (i8*, ...) @__isoc99_scanf(i8* getelementptr inbounds ([3 x i8], [3 x i8]* @.str, i64 0, i64 0), i32* nonnull %1)
  %7 = bitcast double* %2 to i8*
  %8 = bitcast double* %3 to i8*
  %9 = bitcast double* %4 to i8*
  %10 = load i32, i32* %1, align 4, !tbaa !5
  %11 = icmp sgt i32 %10, 0
  br i1 %11, label %12, label %92

12:                                               ; preds = %0, %87
  %13 = phi i32 [ %89, %87 ], [ 0, %0 ]
  call void @llvm.lifetime.start.p0i8(i64 8, i8* nonnull %7) #6
  call void @llvm.lifetime.start.p0i8(i64 8, i8* nonnull %8) #6
  call void @llvm.lifetime.start.p0i8(i64 8, i8* nonnull %9) #6
  %14 = call i32 (i8*, ...) @__isoc99_scanf(i8* getelementptr inbounds ([12 x i8], [12 x i8]* @.str.1, i64 0, i64 0), double* nonnull %2, double* nonnull %3, double* nonnull %4)
  %15 = load double, double* %3, align 8, !tbaa !9
  %16 = fmul double %15, %15
  %17 = load double, double* %2, align 8, !tbaa !9
  %18 = fmul double %17, 4.000000e+00
  %19 = load double, double* %4, align 8, !tbaa !9
  %20 = fmul double %18, %19
  %21 = fsub double %16, %20
  %22 = call double @llvm.fabs.f64(double %21)
  %23 = fcmp ugt double %22, 0x3EB0C6F7A0B5ED8D
  br i1 %23, label %36, label %24

24:                                               ; preds = %12
  %25 = call double @llvm.fabs.f64(double %15)
  %26 = fcmp ugt double %25, 0x3EB0C6F7A0B5ED8D
  br i1 %26, label %31, label %27

27:                                               ; preds = %24
  %28 = fmul double %17, 2.000000e+00
  %29 = fdiv double %15, %28
  %30 = call i32 (i8*, ...) @printf(i8* nonnull dereferenceable(1) getelementptr inbounds ([11 x i8], [11 x i8]* @.str.2, i64 0, i64 0), double %29)
  br label %87

31:                                               ; preds = %24
  %32 = fneg double %15
  %33 = fmul double %17, 2.000000e+00
  %34 = fdiv double %32, %33
  %35 = call i32 (i8*, ...) @printf(i8* nonnull dereferenceable(1) getelementptr inbounds ([11 x i8], [11 x i8]* @.str.2, i64 0, i64 0), double %34)
  br label %87

36:                                               ; preds = %12
  %37 = fcmp ogt double %21, 0x3EB0C6F7A0B5ED8D
  br i1 %37, label %38, label %52

38:                                               ; preds = %36
  %39 = call double @sqrt(double %21) #6
  %40 = fsub double %39, %15
  %41 = load double, double* %2, align 8, !tbaa !9
  %42 = fmul double %41, 2.000000e+00
  %43 = fdiv double %40, %42
  %44 = load double, double* %3, align 8, !tbaa !9
  %45 = fneg double %44
  %46 = call double @sqrt(double %21) #6
  %47 = fsub double %45, %46
  %48 = load double, double* %2, align 8, !tbaa !9
  %49 = fmul double %48, 2.000000e+00
  %50 = fdiv double %47, %49
  %51 = call i32 (i8*, ...) @printf(i8* nonnull dereferenceable(1) getelementptr inbounds ([18 x i8], [18 x i8]* @.str.3, i64 0, i64 0), double %43, double %50)
  br label %87

52:                                               ; preds = %36
  %53 = call double @llvm.fabs.f64(double %15)
  %54 = fcmp ugt double %53, 0x3EB0C6F7A0B5ED8D
  br i1 %54, label %70, label %55

55:                                               ; preds = %52
  %56 = fmul double %17, 2.000000e+00
  %57 = fdiv double %15, %56
  %58 = fneg double %21
  %59 = call double @sqrt(double %58) #6
  %60 = load double, double* %2, align 8, !tbaa !9
  %61 = fmul double %60, 2.000000e+00
  %62 = fdiv double %59, %61
  %63 = load double, double* %3, align 8, !tbaa !9
  %64 = fdiv double %63, %61
  %65 = call double @sqrt(double %58) #6
  %66 = load double, double* %2, align 8, !tbaa !9
  %67 = fmul double %66, 2.000000e+00
  %68 = fdiv double %65, %67
  %69 = call i32 (i8*, ...) @printf(i8* nonnull dereferenceable(1) getelementptr inbounds ([30 x i8], [30 x i8]* @.str.4, i64 0, i64 0), double %57, double %62, double %64, double %68)
  br label %87

70:                                               ; preds = %52
  %71 = fneg double %15
  %72 = fmul double %17, 2.000000e+00
  %73 = fdiv double %71, %72
  %74 = fneg double %21
  %75 = call double @sqrt(double %74) #6
  %76 = load double, double* %2, align 8, !tbaa !9
  %77 = fmul double %76, 2.000000e+00
  %78 = fdiv double %75, %77
  %79 = load double, double* %3, align 8, !tbaa !9
  %80 = fneg double %79
  %81 = fdiv double %80, %77
  %82 = call double @sqrt(double %74) #6
  %83 = load double, double* %2, align 8, !tbaa !9
  %84 = fmul double %83, 2.000000e+00
  %85 = fdiv double %82, %84
  %86 = call i32 (i8*, ...) @printf(i8* nonnull dereferenceable(1) getelementptr inbounds ([30 x i8], [30 x i8]* @.str.4, i64 0, i64 0), double %73, double %78, double %81, double %85)
  br label %87

87:                                               ; preds = %38, %70, %55, %27, %31
  %88 = call i32 @putchar(i32 10)
  call void @llvm.lifetime.end.p0i8(i64 8, i8* nonnull %9) #6
  call void @llvm.lifetime.end.p0i8(i64 8, i8* nonnull %8) #6
  call void @llvm.lifetime.end.p0i8(i64 8, i8* nonnull %7) #6
  %89 = add nuw nsw i32 %13, 1
  %90 = load i32, i32* %1, align 4, !tbaa !5
  %91 = icmp slt i32 %89, %90
  br i1 %91, label %12, label %92, !llvm.loop !11

92:                                               ; preds = %87, %0
  call void @llvm.lifetime.end.p0i8(i64 4, i8* nonnull %5) #6
  ret i32 0
}

; Function Attrs: argmemonly mustprogress nofree nosync nounwind willreturn
declare void @llvm.lifetime.start.p0i8(i64 immarg, i8* nocapture) #1

; Function Attrs: nofree nounwind
declare noundef i32 @__isoc99_scanf(i8* nocapture noundef readonly, ...) local_unnamed_addr #2

; Function Attrs: mustprogress nofree nosync nounwind readnone speculatable willreturn
declare double @llvm.fabs.f64(double) #3

; Function Attrs: nofree nounwind
declare noundef i32 @printf(i8* nocapture noundef readonly, ...) local_unnamed_addr #2

; Function Attrs: mustprogress nofree nounwind willreturn
declare double @sqrt(double) local_unnamed_addr #4

; Function Attrs: argmemonly mustprogress nofree nosync nounwind willreturn
declare void @llvm.lifetime.end.p0i8(i64 immarg, i8* nocapture) #1

; Function Attrs: nofree nounwind
declare noundef i32 @putchar(i32 noundef) local_unnamed_addr #5


!llvm.module.flags = !{!0, !1, !2, !3}
!llvm.ident = !{!4}

!0 = !{i32 1, !"wchar_size", i32 4}
!1 = !{i32 7, !"PIC Level", i32 2}
!2 = !{i32 7, !"PIE Level", i32 2}
!3 = !{i32 7, !"uwtable", i32 1}
!4 = !{!"clang version 13.0.0"}
!5 = !{!6, !6, i64 0}
!6 = !{!"int", !7, i64 0}
!7 = !{!"omnipotent char", !8, i64 0}
!8 = !{!"Simple C/C++ TBAA"}
!9 = !{!10, !10, i64 0}
!10 = !{!"double", !7, i64 0}
!11 = distinct !{!11, !12}
!12 = !{!"llvm.loop.mustprogress"}
